target datalayout = "e-m:e-p270:32:32-p271:32:32-p272:64:64-i64:64-i128:128-f80:128-n8:16:32:64-S128"
target triple = "x86_64-pc-linux-gnu"

@bio_err = external global ptr, align 8
@.str.241 = private unnamed_addr constant [46 x i8] c"Check that the request matches the signature\0A\00", align 1
@.str.245 = private unnamed_addr constant [14 x i8] c"Signature ok\0A\00", align 1
@.str.307 = private unnamed_addr constant [21 x i8] c"template certificate\00", align 1
@.str.308 = private unnamed_addr constant [28 x i8] c"error unpacking public key\0A\00", align 1
@.str.309 = private unnamed_addr constant [37 x i8] c"Signature verification problems....\0A\00", align 1
@.str.310 = private unnamed_addr constant [41 x i8] c"Signature did not match the certificate\0A\00", align 1

; Function Attrs: nounwind uwtable
define internal i32 @certify_cert(ptr noundef %0, ptr noundef %1, i32 noundef %2, ptr noundef %3, ptr noundef %4, ptr noundef %5, ptr noundef %6, ptr noundef %7, ptr noundef %8, ptr noundef %9, ptr noundef %10, ptr noundef %11, ptr noundef %12, i64 noundef %13, i32 noundef %14, i32 noundef %15, ptr noundef %16, ptr noundef %17, i64 noundef %18, i32 noundef %19, ptr noundef %20, ptr noundef %21, i32 noundef %22, i64 noundef %23, i64 noundef %24, i32 noundef %25, i32 noundef %26, i64 noundef %27) #0 {
  %29 = alloca ptr, align 8
  %30 = alloca ptr, align 8
  %31 = alloca i32, align 4
  %32 = alloca ptr, align 8
  %33 = alloca ptr, align 8
  %34 = alloca ptr, align 8
  %35 = alloca ptr, align 8
  %36 = alloca ptr, align 8
  %37 = alloca ptr, align 8
  %38 = alloca ptr, align 8
  %39 = alloca ptr, align 8
  %40 = alloca ptr, align 8
  %41 = alloca ptr, align 8
  %42 = alloca i64, align 8
  %43 = alloca i32, align 4
  %44 = alloca i32, align 4
  %45 = alloca ptr, align 8
  %46 = alloca ptr, align 8
  %47 = alloca i64, align 8
  %48 = alloca i32, align 4
  %49 = alloca ptr, align 8
  %50 = alloca ptr, align 8
  %51 = alloca i32, align 4
  %52 = alloca i64, align 8
  %53 = alloca i64, align 8
  %54 = alloca i32, align 4
  %55 = alloca i32, align 4
  %56 = alloca i64, align 8
  %57 = alloca ptr, align 8
  %58 = alloca ptr, align 8
  %59 = alloca ptr, align 8
  %60 = alloca i32, align 4
  %61 = alloca i32, align 4
  store ptr %0, ptr %29, align 8, !tbaa !75
  store ptr %1, ptr %30, align 8, !tbaa !31
  store i32 %2, ptr %31, align 4, !tbaa !4
  store ptr %3, ptr %32, align 8, !tbaa !31
  store ptr %4, ptr %33, align 8, !tbaa !17
  store ptr %5, ptr %34, align 8, !tbaa !35
  store ptr %6, ptr %35, align 8, !tbaa !31
  store ptr %7, ptr %36, align 8, !tbaa !25
  store ptr %8, ptr %37, align 8, !tbaa !25
  store ptr %9, ptr %38, align 8, !tbaa !23
  store ptr %10, ptr %39, align 8, !tbaa !21
  store ptr %11, ptr %40, align 8, !tbaa !15
  store ptr %12, ptr %41, align 8, !tbaa !31
  store i64 %13, ptr %42, align 8, !tbaa !33
  store i32 %14, ptr %43, align 4, !tbaa !4
  store i32 %15, ptr %44, align 4, !tbaa !4
  store ptr %16, ptr %45, align 8, !tbaa !31
  store ptr %17, ptr %46, align 8, !tbaa !31
  store i64 %18, ptr %47, align 8, !tbaa !33
  store i32 %19, ptr %48, align 4, !tbaa !4
  store ptr %20, ptr %49, align 8, !tbaa !31
  store ptr %21, ptr %50, align 8, !tbaa !11
  store i32 %22, ptr %51, align 4, !tbaa !4
  store i64 %23, ptr %52, align 8, !tbaa !33
  store i64 %24, ptr %53, align 8, !tbaa !33
  store i32 %25, ptr %54, align 4, !tbaa !4
  store i32 %26, ptr %55, align 4, !tbaa !4
  store i64 %27, ptr %56, align 8, !tbaa !33
  call void @llvm.lifetime.start.p0(i64 8, ptr %57) #10
  store ptr null, ptr %57, align 8, !tbaa !35
  call void @llvm.lifetime.start.p0(i64 8, ptr %58) #10
  store ptr null, ptr %58, align 8, !tbaa !79
  call void @llvm.lifetime.start.p0(i64 8, ptr %59) #10
  store ptr null, ptr %59, align 8, !tbaa !17
  call void @llvm.lifetime.start.p0(i64 4, ptr %60) #10
  store i32 -1, ptr %60, align 4, !tbaa !4
  call void @llvm.lifetime.start.p0(i64 4, ptr %61) #10
  %62 = load ptr, ptr %30, align 8, !tbaa !31
  %63 = load i32, ptr %31, align 4, !tbaa !4
  %64 = load ptr, ptr %32, align 8, !tbaa !31
  %65 = call ptr @load_cert_pass(ptr noundef %62, i32 noundef %63, i32 noundef 1, ptr noundef %64, ptr noundef @.str.307)
  store ptr %65, ptr %57, align 8, !tbaa !35
  %66 = icmp eq ptr %65, null
  br i1 %66, label %67, label %68

67:                                               ; preds = %28
  br label %135

68:                                               ; preds = %28
  %69 = load i32, ptr %51, align 4, !tbaa !4
  %70 = icmp ne i32 %69, 0
  br i1 %70, label %71, label %75

71:                                               ; preds = %68
  %72 = load ptr, ptr @bio_err, align 8, !tbaa !19
  %73 = load ptr, ptr %57, align 8, !tbaa !35
  %74 = call i32 @X509_print(ptr noundef %72, ptr noundef %73)
  br label %75

75:                                               ; preds = %71, %68
  %76 = load ptr, ptr @bio_err, align 8, !tbaa !19
  %77 = call i32 (ptr, ptr, ...) @BIO_printf(ptr noundef %76, ptr noundef @.str.241)
  %78 = load ptr, ptr %57, align 8, !tbaa !35
  %79 = call ptr @X509_get0_pubkey(ptr noundef %78)
  store ptr %79, ptr %59, align 8, !tbaa !17
  %80 = icmp eq ptr %79, null
  br i1 %80, label %81, label %84

81:                                               ; preds = %75
  %82 = load ptr, ptr @bio_err, align 8, !tbaa !19
  %83 = call i32 (ptr, ptr, ...) @BIO_printf(ptr noundef %82, ptr noundef @.str.308)
  br label %135

84:                                               ; preds = %75
  %85 = load ptr, ptr %57, align 8, !tbaa !35
  %86 = load ptr, ptr %59, align 8, !tbaa !17
  %87 = load ptr, ptr %37, align 8, !tbaa !25
  %88 = call i32 @do_X509_verify(ptr noundef %85, ptr noundef %86, ptr noundef %87)
  store i32 %88, ptr %61, align 4, !tbaa !4
  %89 = load i32, ptr %61, align 4, !tbaa !4
  %90 = icmp slt i32 %89, 0
  br i1 %90, label %91, label %94

91:                                               ; preds = %84
  store i32 0, ptr %60, align 4, !tbaa !4
  %92 = load ptr, ptr @bio_err, align 8, !tbaa !19
  %93 = call i32 (ptr, ptr, ...) @BIO_printf(ptr noundef %92, ptr noundef @.str.309)
  br label %135

94:                                               ; preds = %84
  %95 = load i32, ptr %61, align 4, !tbaa !4
  %96 = icmp eq i32 %95, 0
  br i1 %96, label %97, label %100

97:                                               ; preds = %94
  store i32 0, ptr %60, align 4, !tbaa !4
  %98 = load ptr, ptr @bio_err, align 8, !tbaa !19
  %99 = call i32 (ptr, ptr, ...) @BIO_printf(ptr noundef %98, ptr noundef @.str.310)
  br label %135

100:                                              ; preds = %94
  %101 = load ptr, ptr @bio_err, align 8, !tbaa !19
  %102 = call i32 (ptr, ptr, ...) @BIO_printf(ptr noundef %101, ptr noundef @.str.245)
  br label %103

103:                                              ; preds = %100
  %104 = load ptr, ptr %57, align 8, !tbaa !35
  %105 = call ptr @X509_to_X509_REQ(ptr noundef %104, ptr noundef null, ptr noundef null)
  store ptr %105, ptr %58, align 8, !tbaa !79
  %106 = icmp eq ptr %105, null
  br i1 %106, label %107, label %108

107:                                              ; preds = %103
  br label %135

108:                                              ; preds = %103
  %109 = load ptr, ptr %29, align 8, !tbaa !75
  %110 = load ptr, ptr %33, align 8, !tbaa !17
  %111 = load ptr, ptr %34, align 8, !tbaa !35
  %112 = load ptr, ptr %35, align 8, !tbaa !31
  %113 = load ptr, ptr %36, align 8, !tbaa !25
  %114 = load ptr, ptr %38, align 8, !tbaa !23
  %115 = load ptr, ptr %39, align 8, !tbaa !21
  %116 = load ptr, ptr %40, align 8, !tbaa !15
  %117 = load ptr, ptr %41, align 8, !tbaa !31
  %118 = load i64, ptr %42, align 8, !tbaa !33
  %119 = load i32, ptr %43, align 4, !tbaa !4
  %120 = load i32, ptr %44, align 4, !tbaa !4
  %121 = load ptr, ptr %45, align 8, !tbaa !31
  %122 = load ptr, ptr %46, align 8, !tbaa !31
  %123 = load i64, ptr %47, align 8, !tbaa !33
  %124 = load i32, ptr %48, align 4, !tbaa !4
  %125 = load i32, ptr %51, align 4, !tbaa !4
  %126 = load ptr, ptr %58, align 8, !tbaa !79
  %127 = load ptr, ptr %49, align 8, !tbaa !31
  %128 = load ptr, ptr %50, align 8, !tbaa !11
  %129 = load i64, ptr %52, align 8, !tbaa !33
  %130 = load i64, ptr %53, align 8, !tbaa !33
  %131 = load i32, ptr %54, align 4, !tbaa !4
  %132 = load i32, ptr %55, align 4, !tbaa !4
  %133 = load i64, ptr %56, align 8, !tbaa !33
  %134 = call i32 @do_body(ptr noundef %109, ptr noundef %110, ptr noundef %111, ptr noundef %112, ptr noundef %113, ptr noundef %114, ptr noundef %115, ptr noundef %116, ptr noundef %117, i64 noundef %118, i32 noundef %119, i32 noundef %120, ptr noundef %121, ptr noundef %122, i64 noundef %123, i32 noundef %124, i32 noundef %125, ptr noundef %126, ptr noundef %127, ptr noundef %128, i64 noundef %129, i64 noundef %130, i32 noundef %131, i32 noundef %132, i32 noundef 0, i64 noundef %133)
  store i32 %134, ptr %60, align 4, !tbaa !4
  br label %135

135:                                              ; preds = %108, %107, %97, %91, %81, %67
  %136 = load ptr, ptr %58, align 8, !tbaa !79
  call void @X509_REQ_free(ptr noundef %136)
  %137 = load ptr, ptr %57, align 8, !tbaa !35
  call void @X509_free(ptr noundef %137)
  %138 = load i32, ptr %60, align 4, !tbaa !4
  call void @llvm.lifetime.end.p0(i64 4, ptr %61) #10
  call void @llvm.lifetime.end.p0(i64 4, ptr %60) #10
  call void @llvm.lifetime.end.p0(i64 8, ptr %59) #10
  call void @llvm.lifetime.end.p0(i64 8, ptr %58) #10
  call void @llvm.lifetime.end.p0(i64 8, ptr %57) #10
  ret i32 %138
}