; Function Attrs: nounwind uwtable
define internal fastcc noundef i32 @certify_cert(ptr noundef nonnull writeonly captures(none) %0, ptr noundef nonnull %1, i32 noundef %2, ptr noundef %3, ptr noundef nonnull %4, ptr noundef %5, ptr noundef %6, ptr noundef %7, ptr noundef %8, ptr noundef nonnull %9, ptr noundef nonnull readonly captures(none) %10, ptr noundef %11, ptr noundef %12, i64 noundef range(i64 4096, 4098) %13, i32 noundef range(i32 0, 2) %14, ptr noundef %15, ptr noundef %16, i64 noundef %17, i32 noundef range(i32 0, 2) %18, ptr noundef %19, ptr noundef nonnull %20, i32 noundef range(i32 0, 2) %21, i64 noundef %22, i64 noundef %23, i32 noundef range(i32 0, 2) %24, i32 noundef %25, i64 noundef %26) unnamed_addr #0 {
  %28 = tail call ptr @load_cert_pass(ptr noundef nonnull %1, i32 noundef %2, i32 noundef 1, ptr noundef %3, ptr noundef nonnull @.str.307) #12
  %29 = icmp eq ptr %28, null
  br i1 %29, label %59, label %30

30:                                               ; preds = %27
  %.not = icmp eq i32 %21, 0
  br i1 %.not, label %34, label %31

31:                                               ; preds = %30
  %32 = load ptr, ptr @bio_err, align 8, !tbaa !19
  %33 = tail call i32 @X509_print(ptr noundef %32, ptr noundef nonnull %28) #12
  br label %34

34:                                               ; preds = %31, %30
  %35 = load ptr, ptr @bio_err, align 8, !tbaa !19
  %36 = tail call i32 (ptr, ptr, ...) @BIO_printf(ptr noundef %35, ptr noundef nonnull @.str.241) #12
  %37 = tail call ptr @X509_get0_pubkey(ptr noundef nonnull %28) #12
  %38 = icmp eq ptr %37, null
  br i1 %38, label %39, label %42

39:                                               ; preds = %34
  %40 = load ptr, ptr @bio_err, align 8, !tbaa !19
  %41 = tail call i32 (ptr, ptr, ...) @BIO_printf(ptr noundef %40, ptr noundef nonnull @.str.308) #12
  br label %59

42:                                               ; preds = %34
  %43 = tail call i32 @do_X509_verify(ptr noundef nonnull %28, ptr noundef nonnull %37, ptr noundef %8) #12
  %44 = icmp slt i32 %43, 0
  br i1 %44, label %45, label %48

45:                                               ; preds = %42
  %46 = load ptr, ptr @bio_err, align 8, !tbaa !19
  %47 = tail call i32 (ptr, ptr, ...) @BIO_printf(ptr noundef %46, ptr noundef nonnull @.str.309) #12
  br label %59

48:                                               ; preds = %42
  %49 = icmp eq i32 %43, 0
  %50 = load ptr, ptr @bio_err, align 8, !tbaa !19
  br i1 %49, label %51, label %53

51:                                               ; preds = %48
  %52 = tail call i32 (ptr, ptr, ...) @BIO_printf(ptr noundef %50, ptr noundef nonnull @.str.310) #12
  br label %59

53:                                               ; preds = %48
  %54 = tail call i32 (ptr, ptr, ...) @BIO_printf(ptr noundef %50, ptr noundef nonnull @.str.245) #12
  %55 = tail call ptr @X509_to_X509_REQ(ptr noundef nonnull %28, ptr noundef null, ptr noundef null) #12
  %56 = icmp eq ptr %55, null
  br i1 %56, label %59, label %57

57:                                               ; preds = %53
  %58 = tail call fastcc i32 @do_body(ptr noundef %0, ptr noundef %4, ptr noundef %5, ptr noundef %6, ptr noundef %7, ptr noundef %9, ptr noundef %10, ptr noundef %11, ptr noundef %12, i64 noundef %13, i32 noundef %14, ptr noundef %15, ptr noundef %16, i64 noundef %17, i32 noundef %18, i32 noundef %21, ptr noundef %55, ptr noundef %19, ptr noundef %20, i64 noundef %22, i64 noundef %23, i32 noundef %24, i32 noundef %25, i32 noundef 0, i64 noundef %26)
  br label %59

59:                                               ; preds = %53, %27, %57, %51, %45, %39
  %.039 = phi ptr [ null, %27 ], [ null, %39 ], [ null, %45 ], [ null, %51 ], [ null, %53 ], [ %55, %57 ]
  %.0 = phi i32 [ -1, %27 ], [ -1, %39 ], [ 0, %45 ], [ 0, %51 ], [ -1, %53 ], [ %58, %57 ]
  tail call void @X509_REQ_free(ptr noundef %.039) #12
  tail call void @X509_free(ptr noundef %28) #12
  ret i32 %.0
}